target datalayout = "e-m:e-p270:32:32-p271:32:32-p272:64:64-i64:64-i128:128-f80:128-n8:16:32:64-S128"
target triple = "x86_64-pc-linux-gnu"

%struct.Abc_Cex_t_ = type { i32, i32, i32, i32, i32, [0 x i32] }
%struct.Gia_Man_t_ = type { ptr, ptr, i32, i32, i32, i32, ptr, ptr, i32, i32, i32, ptr, ptr, %struct.Vec_Int_t_, %struct.Vec_Int_t_, i32, i32, i32, %struct.Vec_Int_t_, ptr, ptr, ptr, i32, i32, i32, i32, ptr, ptr, ptr, ptr, ptr, i32, i32, ptr, i32, ptr, ptr, ptr, ptr, ptr, ptr, ptr, ptr, ptr, ptr, ptr, ptr, ptr, ptr, ptr, ptr, ptr, ptr, %struct.Vec_Int_t_, %struct.Vec_Int_t_, ptr, ptr, ptr, ptr, ptr, ptr, ptr, ptr, ptr, ptr, ptr, ptr, ptr, ptr, ptr, ptr, ptr, ptr, ptr, ptr, ptr, i32, float, float, ptr, ptr, i32, ptr, ptr, ptr, ptr, ptr, ptr, ptr, ptr, ptr, ptr, ptr, ptr, ptr, ptr, ptr, i64, i64, ptr, ptr, i32, i32, i32, i32, i32, i32, i32, i32, i32, i32, i32, i32, ptr, ptr, ptr, ptr, ptr, ptr, ptr, ptr, i32, i32, i32, ptr, i32, i32, ptr, ptr, ptr, ptr, ptr, ptr, i32, i32, ptr, %struct.Vec_Int_t_, %struct.Vec_Int_t_, %struct.Vec_Int_t_, ptr, ptr, ptr }
%struct.Vec_Int_t_ = type { i32, i32, ptr }
%struct.Vec_Ptr_t_ = type { i32, i32, ptr }

; Function Attrs: nounwind uwtable
define internal i32 @Vec_PtrSize(ptr noundef %0) #0 {
  %2 = alloca ptr, align 8
  store ptr %0, ptr %2, align 8
  %3 = load ptr, ptr %2, align 8
  %4 = getelementptr inbounds %struct.Vec_Ptr_t_, ptr %3, i32 0, i32 1
  %5 = load i32, ptr %4, align 4
  ret i32 %5
}

; Function Attrs: nounwind uwtable
define internal i32 @Abc_InfoHasBit(ptr noundef %0, i32 noundef %1) #0 {
  %3 = alloca ptr, align 8
  %4 = alloca i32, align 4
  store ptr %0, ptr %3, align 8
  store i32 %1, ptr %4, align 4
  %5 = load ptr, ptr %3, align 8
  %6 = load i32, ptr %4, align 4
  %7 = ashr i32 %6, 5
  %8 = sext i32 %7 to i64
  %9 = getelementptr inbounds i32, ptr %5, i64 %8
  %10 = load i32, ptr %9, align 4
  %11 = load i32, ptr %4, align 4
  %12 = and i32 %11, 31
  %13 = shl i32 1, %12
  %14 = and i32 %10, %13
  %15 = icmp ugt i32 %14, 0
  %16 = zext i1 %15 to i32
  ret i32 %16
}

; Function Attrs: nounwind uwtable
define internal ptr @Vec_PtrEntry(ptr noundef %0, i32 noundef %1) #0 {
  %3 = alloca ptr, align 8
  %4 = alloca i32, align 4
  store ptr %0, ptr %3, align 8
  store i32 %1, ptr %4, align 4
  %5 = load ptr, ptr %3, align 8
  %6 = getelementptr inbounds %struct.Vec_Ptr_t_, ptr %5, i32 0, i32 2
  %7 = load ptr, ptr %6, align 8
  %8 = load i32, ptr %4, align 4
  %9 = sext i32 %8 to i64
  %10 = getelementptr inbounds ptr, ptr %7, i64 %9
  %11 = load ptr, ptr %10, align 8
  ret ptr %11
}

; Function Attrs: nounwind uwtable
define internal i32 @Gia_ManRegNum(ptr noundef %0) #0 {
  %2 = alloca ptr, align 8
  store ptr %0, ptr %2, align 8
  %3 = load ptr, ptr %2, align 8
  %4 = getelementptr inbounds %struct.Gia_Man_t_, ptr %3, i32 0, i32 2
  %5 = load i32, ptr %4, align 8
  ret i32 %5
}

; Function Attrs: nounwind uwtable
define internal i32 @Vec_PtrReadWordsSimInfo(ptr noundef %0) #0 {
  %2 = alloca ptr, align 8
  store ptr %0, ptr %2, align 8
  %3 = load ptr, ptr %2, align 8
  %4 = call ptr @Vec_PtrEntry(ptr noundef %3, i32 noundef 1)
  %5 = load ptr, ptr %2, align 8
  %6 = call ptr @Vec_PtrEntry(ptr noundef %5, i32 noundef 0)
  %7 = ptrtoint ptr %4 to i64
  %8 = ptrtoint ptr %6 to i64
  %9 = sub i64 %7, %8
  %10 = sdiv exact i64 %9, 4
  %11 = trunc i64 %10 to i32
  ret i32 %11
}

; Function Attrs: nounwind uwtable
define void @Cec_ManSeqDeriveInfoInitRandom(ptr noundef %0, ptr noundef %1, ptr noundef %2) #0 {
  %4 = alloca ptr, align 8
  %5 = alloca ptr, align 8
  %6 = alloca ptr, align 8
  %7 = alloca ptr, align 8
  %8 = alloca i32, align 4
  %9 = alloca i32, align 4
  %10 = alloca i32, align 4
  store ptr %0, ptr %4, align 8
  store ptr %1, ptr %5, align 8
  store ptr %2, ptr %6, align 8
  %11 = load ptr, ptr %4, align 8
  %12 = call i32 @Vec_PtrReadWordsSimInfo(ptr noundef %11)
  store i32 %12, ptr %10, align 4
  store i32 0, ptr %8, align 4
  br label %13

13:                                               ; preds = %47, %3
  %14 = load i32, ptr %8, align 4
  %15 = load ptr, ptr %5, align 8
  %16 = call i32 @Gia_ManRegNum(ptr noundef %15)
  %17 = icmp slt i32 %14, %16
  br i1 %17, label %18, label %50

18:                                               ; preds = %13
  %19 = load ptr, ptr %4, align 8
  %20 = load i32, ptr %8, align 4
  %21 = call ptr @Vec_PtrEntry(ptr noundef %19, i32 noundef %20)
  store ptr %21, ptr %7, align 8
  store i32 0, ptr %9, align 4
  br label %22

22:                                               ; preds = %43, %18
  %23 = load i32, ptr %9, align 4
  %24 = load i32, ptr %10, align 4
  %25 = icmp slt i32 %23, %24
  br i1 %25, label %26, label %46

26:                                               ; preds = %22
  %27 = load ptr, ptr %6, align 8
  %28 = icmp ne ptr %27, null
  br i1 %28, label %29, label %36

29:                                               ; preds = %26
  %30 = load ptr, ptr %6, align 8
  %31 = getelementptr inbounds %struct.Abc_Cex_t_, ptr %30, i32 0, i32 5
  %32 = getelementptr inbounds [0 x i32], ptr %31, i64 0, i64 0
  %33 = load i32, ptr %8, align 4
  %34 = call i32 @Abc_InfoHasBit(ptr noundef %32, i32 noundef %33)
  %35 = icmp ne i32 %34, 0
  br label %36

36:                                               ; preds = %29, %26
  %37 = phi i1 [ false, %26 ], [ %35, %29 ]
  %38 = select i1 %37, i32 -1, i32 0
  %39 = load ptr, ptr %7, align 8
  %40 = load i32, ptr %9, align 4
  %41 = sext i32 %40 to i64
  %42 = getelementptr inbounds i32, ptr %39, i64 %41
  store i32 %38, ptr %42, align 4
  br label %43

43:                                               ; preds = %36
  %44 = load i32, ptr %9, align 4
  %45 = add nsw i32 %44, 1
  store i32 %45, ptr %9, align 4
  br label %22, !llvm.loop !12

46:                                               ; preds = %22
  br label %47

47:                                               ; preds = %46
  %48 = load i32, ptr %8, align 4
  %49 = add nsw i32 %48, 1
  store i32 %49, ptr %8, align 4
  br label %13, !llvm.loop !13

50:                                               ; preds = %13
  br label %51

51:                                               ; preds = %74, %50
  %52 = load i32, ptr %8, align 4
  %53 = load ptr, ptr %4, align 8
  %54 = call i32 @Vec_PtrSize(ptr noundef %53)
  %55 = icmp slt i32 %52, %54
  br i1 %55, label %56, label %77

56:                                               ; preds = %51
  %57 = load ptr, ptr %4, align 8
  %58 = load i32, ptr %8, align 4
  %59 = call ptr @Vec_PtrEntry(ptr noundef %57, i32 noundef %58)
  store ptr %59, ptr %7, align 8
  store i32 0, ptr %9, align 4
  br label %60

60:                                               ; preds = %70, %56
  %61 = load i32, ptr %9, align 4
  %62 = load i32, ptr %10, align 4
  %63 = icmp slt i32 %61, %62
  br i1 %63, label %64, label %73

64:                                               ; preds = %60
  %65 = call i32 @Gia_ManRandom(i32 noundef 0)
  %66 = load ptr, ptr %7, align 8
  %67 = load i32, ptr %9, align 4
  %68 = sext i32 %67 to i64
  %69 = getelementptr inbounds i32, ptr %66, i64 %68
  store i32 %65, ptr %69, align 4
  br label %70

70:                                               ; preds = %64
  %71 = load i32, ptr %9, align 4
  %72 = add nsw i32 %71, 1
  store i32 %72, ptr %9, align 4
  br label %60, !llvm.loop !14

73:                                               ; preds = %60
  br label %74

74:                                               ; preds = %73
  %75 = load i32, ptr %8, align 4
  %76 = add nsw i32 %75, 1
  store i32 %76, ptr %8, align 4
  br label %51, !llvm.loop !15

77:                                               ; preds = %51
  ret void
}