; Function Attrs: nounwind uwtable
define void @Cec_ManSeqDeriveInfoInitRandom(ptr noundef readonly captures(none) %0, ptr noundef readonly captures(none) %1, ptr noundef readonly %2) local_unnamed_addr #0 {
  %4 = getelementptr i8, ptr %0, i64 8
  %.val27 = load ptr, ptr %4, align 8
  %.val27.val = load ptr, ptr %.val27, align 8
  %5 = getelementptr i8, ptr %.val27, i64 8
  %.val27.val28 = load ptr, ptr %5, align 8
  %6 = ptrtoint ptr %.val27.val28 to i64
  %7 = ptrtoint ptr %.val27.val to i64
  %8 = sub i64 %6, %7
  %9 = lshr i64 %8, 2
  %10 = trunc i64 %9 to i32
  %11 = getelementptr i8, ptr %1, i64 16
  %.val2932 = load i32, ptr %11, align 8
  %12 = icmp sgt i32 %.val2932, 0
  br i1 %12, label %.lr.ph35, label %.preheader

.lr.ph35:                                         ; preds = %3
  %13 = icmp sgt i32 %10, 0
  %14 = getelementptr inbounds nuw i8, ptr %2, i64 20
  br i1 %13, label %.lr.ph35.split.us, label %.preheader

.lr.ph35.split.us:                                ; preds = %.lr.ph35
  %.not = icmp eq ptr %2, null
  br i1 %.not, label %.lr.ph.us.us.preheader, label %.lr.ph.us.preheader

.lr.ph.us.preheader:                              ; preds = %.lr.ph35.split.us
  %wide.trip.count = and i64 %9, 2147483647
  br label %.lr.ph.us

.lr.ph.us.us.preheader:                           ; preds = %.lr.ph35.split.us
  %15 = and i64 %8, 8589934588
  br label %.lr.ph.us.us

.lr.ph.us.us:                                     ; preds = %.lr.ph.us.us.preheader, %.lr.ph.us.us
  %indvars.iv58 = phi i64 [ 0, %.lr.ph.us.us.preheader ], [ %indvars.iv.next59, %.lr.ph.us.us ]
  %.val26.us.us = load ptr, ptr %4, align 8
  %16 = getelementptr inbounds nuw ptr, ptr %.val26.us.us, i64 %indvars.iv58
  %17 = load ptr, ptr %16, align 8
  tail call void @llvm.memset.p0.i64(ptr align 4 %17, i8 0, i64 %15, i1 false)
  %indvars.iv.next59 = add nuw nsw i64 %indvars.iv58, 1
  %.val29.us.us = load i32, ptr %11, align 8
  %18 = sext i32 %.val29.us.us to i64
  %19 = icmp slt i64 %indvars.iv.next59, %18
  br i1 %19, label %.lr.ph.us.us, label %.preheader.loopexit, !llvm.loop !11

.lr.ph.us:                                        ; preds = %.lr.ph.us.preheader, %._crit_edge.split.us37
  %indvars.iv52 = phi i64 [ 0, %.lr.ph.us.preheader ], [ %indvars.iv.next53, %._crit_edge.split.us37 ]
  %.val26.us = load ptr, ptr %4, align 8
  %20 = getelementptr inbounds nuw ptr, ptr %.val26.us, i64 %indvars.iv52
  %21 = load ptr, ptr %20, align 8
  %22 = trunc nuw nsw i64 %indvars.iv52 to i32
  %23 = lshr i64 %indvars.iv52, 5
  %24 = and i64 %23, 134217727
  %25 = getelementptr inbounds nuw i32, ptr %14, i64 %24
  %26 = and i32 %22, 31
  br label %27

27:                                               ; preds = %.lr.ph.us, %27
  %indvars.iv = phi i64 [ 0, %.lr.ph.us ], [ %indvars.iv.next, %27 ]
  %28 = load i32, ptr %25, align 4
  %29 = lshr i32 %28, %26
  %30 = and i32 %29, 1
  %sext.us = sub nsw i32 0, %30
  %31 = getelementptr inbounds nuw i32, ptr %21, i64 %indvars.iv
  store i32 %sext.us, ptr %31, align 4
  %indvars.iv.next = add nuw nsw i64 %indvars.iv, 1
  %exitcond.not = icmp eq i64 %indvars.iv.next, %wide.trip.count
  br i1 %exitcond.not, label %._crit_edge.split.us37, label %27, !llvm.loop !12

._crit_edge.split.us37:                           ; preds = %27
  %indvars.iv.next53 = add nuw nsw i64 %indvars.iv52, 1
  %.val29.us = load i32, ptr %11, align 8
  %32 = sext i32 %.val29.us to i64
  %33 = icmp slt i64 %indvars.iv.next53, %32
  br i1 %33, label %.lr.ph.us, label %.preheader.loopexit47, !llvm.loop !11

.preheader.loopexit:                              ; preds = %.lr.ph.us.us
  %34 = trunc nuw nsw i64 %indvars.iv.next59 to i32
  br label %.preheader

.preheader.loopexit47:                            ; preds = %._crit_edge.split.us37
  %35 = trunc nuw nsw i64 %indvars.iv.next53 to i32
  br label %.preheader

.preheader:                                       ; preds = %.lr.ph35, %.preheader.loopexit47, %.preheader.loopexit, %3
  %.023.lcssa = phi i32 [ 0, %3 ], [ %34, %.preheader.loopexit ], [ %35, %.preheader.loopexit47 ], [ %.val2932, %.lr.ph35 ]
  %36 = getelementptr i8, ptr %0, i64 4
  %.val3041 = load i32, ptr %36, align 4
  %37 = icmp slt i32 %.023.lcssa, %.val3041
  %38 = icmp sgt i32 %10, 0
  %or.cond = select i1 %37, i1 %38, i1 false
  br i1 %or.cond, label %.lr.ph.us45.preheader, label %._crit_edge44

.lr.ph.us45.preheader:                            ; preds = %.preheader
  %39 = zext nneg i32 %.023.lcssa to i64
  %wide.trip.count64 = and i64 %9, 2147483647
  br label %.lr.ph.us45

.lr.ph.us45:                                      ; preds = %.lr.ph.us45.preheader, %._crit_edge.us
  %indvars.iv66 = phi i64 [ %39, %.lr.ph.us45.preheader ], [ %indvars.iv.next67, %._crit_edge.us ]
  %.val.us = load ptr, ptr %4, align 8
  %40 = getelementptr inbounds nuw ptr, ptr %.val.us, i64 %indvars.iv66
  %41 = load ptr, ptr %40, align 8
  br label %42

42:                                               ; preds = %.lr.ph.us45, %42
  %indvars.iv61 = phi i64 [ 0, %.lr.ph.us45 ], [ %indvars.iv.next62, %42 ]
  %43 = tail call i32 @Gia_ManRandom(i32 noundef 0) #13
  %44 = getelementptr inbounds nuw i32, ptr %41, i64 %indvars.iv61
  store i32 %43, ptr %44, align 4
  %indvars.iv.next62 = add nuw nsw i64 %indvars.iv61, 1
  %exitcond65.not = icmp eq i64 %indvars.iv.next62, %wide.trip.count64
  br i1 %exitcond65.not, label %._crit_edge.us, label %42, !llvm.loop !13

._crit_edge.us:                                   ; preds = %42
  %indvars.iv.next67 = add nuw nsw i64 %indvars.iv66, 1
  %.val30.us = load i32, ptr %36, align 4
  %45 = trunc nuw i64 %indvars.iv.next67 to i32
  %46 = icmp sgt i32 %.val30.us, %45
  br i1 %46, label %.lr.ph.us45, label %._crit_edge44, !llvm.loop !14

._crit_edge44:                                    ; preds = %._crit_edge.us, %.preheader
  ret void
}